target datalayout = "e-m:e-p270:32:32-p271:32:32-p272:64:64-i64:64-i128:128-f80:128-n8:16:32:64-S128"
target triple = "x86_64-pc-linux-gnu"

%struct.PJconsts = type { ptr, ptr, ptr, ptr, ptr, ptr, ptr, ptr, ptr, ptr, ptr, ptr, i32, ptr, ptr, ptr, ptr, ptr, ptr, ptr, ptr, double, double, double, double, double, double, double, double, double, double, double, double, double, double, double, double, double, double, double, double, double, double, i32, i32, i32, i32, i32, i32, i32, i32, i32, i32, i32, ptr, ptr, ptr, ptr, ptr, ptr, double, double, double, double, double, double, double, double, double, double, double, i32, [7 x double], i32, ptr, ptr, double, double, i32, [4 x i8], %"class.std::shared_ptr", i8, double, i8, %"class.std::__cxx11::basic_string", %"class.std::__cxx11::basic_string", %"class.std::__cxx11::basic_string", i8, %"class.std::vector", i32, %"class.std::vector.3", i32, i8, i8, i8, ptr }
%"class.std::shared_ptr" = type { %"class.std::__shared_ptr" }
%"class.std::__shared_ptr" = type { ptr, %"class.std::__shared_count" }
%"class.std::__shared_count" = type { ptr }
%"class.std::__cxx11::basic_string" = type { %"struct.std::__cxx11::basic_string<char>::_Alloc_hider", i64, %union.anon }
%"struct.std::__cxx11::basic_string<char>::_Alloc_hider" = type { ptr }
%union.anon = type { i64, [8 x i8] }
%"class.std::vector" = type { %"struct.std::_Vector_base" }
%"struct.std::_Vector_base" = type { %"struct.std::_Vector_base<osgeo::proj::operation::GridDescription, std::allocator<osgeo::proj::operation::GridDescription>>::_Vector_impl" }
%"struct.std::_Vector_base<osgeo::proj::operation::GridDescription, std::allocator<osgeo::proj::operation::GridDescription>>::_Vector_impl" = type { %"struct.std::_Vector_base<osgeo::proj::operation::GridDescription, std::allocator<osgeo::proj::operation::GridDescription>>::_Vector_impl_data" }
%"struct.std::_Vector_base<osgeo::proj::operation::GridDescription, std::allocator<osgeo::proj::operation::GridDescription>>::_Vector_impl_data" = type { ptr, ptr, ptr }
%"class.std::vector.3" = type { %"struct.std::_Vector_base.4" }
%"struct.std::_Vector_base.4" = type { %"struct.std::_Vector_base<PJCoordOperation, std::allocator<PJCoordOperation>>::_Vector_impl" }
%"struct.std::_Vector_base<PJCoordOperation, std::allocator<PJCoordOperation>>::_Vector_impl" = type { %"struct.std::_Vector_base<PJCoordOperation, std::allocator<PJCoordOperation>>::_Vector_impl_data" }
%"struct.std::_Vector_base<PJCoordOperation, std::allocator<PJCoordOperation>>::_Vector_impl_data" = type { ptr, ptr, ptr }
%"struct.(anonymous namespace)::pj_spilhaus_data" = type { double, double, double, double, double, double, double, ptr }
%struct.PJ_XY = type { double, double }
%struct.PJ_LP = type { double, double }

; Function Attrs: mustprogress uwtable
define internal { double, double } @_ZL16spilhaus_inverse5PJ_XYP8PJconsts(double %0, double %1, ptr noundef %2) #0 {
  %4 = alloca %struct.PJ_LP, align 8
  %5 = alloca %struct.PJ_XY, align 8
  %6 = alloca ptr, align 8
  %7 = alloca ptr, align 8
  %8 = alloca %struct.PJ_XY, align 8
  %9 = alloca double, align 8
  %10 = alloca %struct.PJ_LP, align 8
  %11 = alloca %struct.PJ_XY, align 8
  %12 = alloca double, align 8
  %13 = alloca double, align 8
  %14 = alloca double, align 8
  %15 = alloca double, align 8
  %16 = alloca double, align 8
  %17 = getelementptr inbounds nuw { double, double }, ptr %5, i32 0, i32 0
  store double %0, ptr %17, align 8
  %18 = getelementptr inbounds nuw { double, double }, ptr %5, i32 0, i32 1
  store double %1, ptr %18, align 8
  store ptr %2, ptr %6, align 8, !tbaa !3
  call void @llvm.memset.p0.i64(ptr align 8 %4, i8 0, i64 16, i1 false)
  call void @llvm.lifetime.start.p0(i64 8, ptr %7) #15
  %19 = load ptr, ptr %6, align 8, !tbaa !3
  %20 = getelementptr inbounds nuw %struct.PJconsts, ptr %19, i32 0, i32 11
  %21 = load ptr, ptr %20, align 8, !tbaa !43
  store ptr %21, ptr %7, align 8, !tbaa !41
  call void @llvm.lifetime.start.p0(i64 16, ptr %8) #15
  call void @llvm.lifetime.start.p0(i64 8, ptr %9) #15
  %22 = load ptr, ptr %7, align 8, !tbaa !41
  %23 = getelementptr inbounds nuw %"struct.(anonymous namespace)::pj_spilhaus_data", ptr %22, i32 0, i32 4
  %24 = load double, ptr %23, align 8, !tbaa !65
  %25 = load ptr, ptr %6, align 8, !tbaa !3
  %26 = getelementptr inbounds nuw %struct.PJconsts, ptr %25, i32 0, i32 66
  %27 = load double, ptr %26, align 8, !tbaa !83
  %28 = fmul double %24, %27
  %29 = fdiv double 1.000000e+00, %28
  store double %29, ptr %9, align 8, !tbaa !56
  %30 = getelementptr inbounds nuw %struct.PJ_XY, ptr %5, i32 0, i32 0
  %31 = load double, ptr %30, align 8, !tbaa !84
  %32 = load ptr, ptr %7, align 8, !tbaa !41
  %33 = getelementptr inbounds nuw %"struct.(anonymous namespace)::pj_spilhaus_data", ptr %32, i32 0, i32 5
  %34 = load double, ptr %33, align 8, !tbaa !58
  %35 = getelementptr inbounds nuw %struct.PJ_XY, ptr %5, i32 0, i32 1
  %36 = load double, ptr %35, align 8, !tbaa !86
  %37 = load ptr, ptr %7, align 8, !tbaa !41
  %38 = getelementptr inbounds nuw %"struct.(anonymous namespace)::pj_spilhaus_data", ptr %37, i32 0, i32 6
  %39 = load double, ptr %38, align 8, !tbaa !59
  %40 = fneg double %39
  %41 = fmul double %36, %40
  %42 = call double @llvm.fmuladd.f64(double %31, double %34, double %41)
  %43 = fneg double %42
  %44 = load double, ptr %9, align 8, !tbaa !56
  %45 = fmul double %43, %44
  %46 = getelementptr inbounds nuw %struct.PJ_XY, ptr %8, i32 0, i32 0
  store double %45, ptr %46, align 8, !tbaa !84
  %47 = getelementptr inbounds nuw %struct.PJ_XY, ptr %5, i32 0, i32 0
  %48 = load double, ptr %47, align 8, !tbaa !84
  %49 = load ptr, ptr %7, align 8, !tbaa !41
  %50 = getelementptr inbounds nuw %"struct.(anonymous namespace)::pj_spilhaus_data", ptr %49, i32 0, i32 6
  %51 = load double, ptr %50, align 8, !tbaa !59
  %52 = getelementptr inbounds nuw %struct.PJ_XY, ptr %5, i32 0, i32 1
  %53 = load double, ptr %52, align 8, !tbaa !86
  %54 = load ptr, ptr %7, align 8, !tbaa !41
  %55 = getelementptr inbounds nuw %"struct.(anonymous namespace)::pj_spilhaus_data", ptr %54, i32 0, i32 5
  %56 = load double, ptr %55, align 8, !tbaa !58
  %57 = fmul double %53, %56
  %58 = call double @llvm.fmuladd.f64(double %48, double %51, double %57)
  %59 = fneg double %58
  %60 = load double, ptr %9, align 8, !tbaa !56
  %61 = fmul double %59, %60
  %62 = getelementptr inbounds nuw %struct.PJ_XY, ptr %8, i32 0, i32 1
  store double %61, ptr %62, align 8, !tbaa !86
  call void @llvm.lifetime.start.p0(i64 16, ptr %10) #15
  %63 = load ptr, ptr %7, align 8, !tbaa !41
  %64 = getelementptr inbounds nuw %"struct.(anonymous namespace)::pj_spilhaus_data", ptr %63, i32 0, i32 7
  %65 = load ptr, ptr %64, align 8, !tbaa !45
  %66 = getelementptr inbounds nuw %struct.PJconsts, ptr %65, i32 0, i32 14
  %67 = load ptr, ptr %66, align 8, !tbaa !67
  call void @llvm.memcpy.p0.p0.i64(ptr align 8 %11, ptr align 8 %8, i64 16, i1 false), !tbaa.struct !82
  %68 = load ptr, ptr %7, align 8, !tbaa !41
  %69 = getelementptr inbounds nuw %"struct.(anonymous namespace)::pj_spilhaus_data", ptr %68, i32 0, i32 7
  %70 = load ptr, ptr %69, align 8, !tbaa !45
  %71 = getelementptr inbounds nuw { double, double }, ptr %11, i32 0, i32 0
  %72 = load double, ptr %71, align 8
  %73 = getelementptr inbounds nuw { double, double }, ptr %11, i32 0, i32 1
  %74 = load double, ptr %73, align 8
  %75 = call { double, double } %67(double %72, double %74, ptr noundef %70)
  %76 = getelementptr inbounds nuw { double, double }, ptr %10, i32 0, i32 0
  %77 = extractvalue { double, double } %75, 0
  store double %77, ptr %76, align 8
  %78 = getelementptr inbounds nuw { double, double }, ptr %10, i32 0, i32 1
  %79 = extractvalue { double, double } %75, 1
  store double %79, ptr %78, align 8
  call void @llvm.lifetime.start.p0(i64 8, ptr %12) #15
  %80 = getelementptr inbounds nuw %struct.PJ_LP, ptr %10, i32 0, i32 1
  %81 = load double, ptr %80, align 8, !tbaa !76
  %82 = call double @cos(double noundef %81) #15, !tbaa !57
  store double %82, ptr %12, align 8, !tbaa !56
  call void @llvm.lifetime.start.p0(i64 8, ptr %13) #15
  %83 = getelementptr inbounds nuw %struct.PJ_LP, ptr %10, i32 0, i32 1
  %84 = load double, ptr %83, align 8, !tbaa !76
  %85 = call double @sin(double noundef %84) #15, !tbaa !57
  store double %85, ptr %13, align 8, !tbaa !56
  call void @llvm.lifetime.start.p0(i64 8, ptr %14) #15
  %86 = getelementptr inbounds nuw %struct.PJ_LP, ptr %10, i32 0, i32 0
  %87 = load double, ptr %86, align 8, !tbaa !78
  %88 = load ptr, ptr %7, align 8, !tbaa !41
  %89 = getelementptr inbounds nuw %"struct.(anonymous namespace)::pj_spilhaus_data", ptr %88, i32 0, i32 2
  %90 = load double, ptr %89, align 8, !tbaa !63
  %91 = fsub double %87, %90
  %92 = call double @cos(double noundef %91) #15, !tbaa !57
  store double %92, ptr %14, align 8, !tbaa !56
  call void @llvm.lifetime.start.p0(i64 8, ptr %15) #15
  %93 = getelementptr inbounds nuw %struct.PJ_LP, ptr %10, i32 0, i32 0
  %94 = load double, ptr %93, align 8, !tbaa !78
  %95 = load ptr, ptr %7, align 8, !tbaa !41
  %96 = getelementptr inbounds nuw %"struct.(anonymous namespace)::pj_spilhaus_data", ptr %95, i32 0, i32 2
  %97 = load double, ptr %96, align 8, !tbaa !63
  %98 = fsub double %94, %97
  %99 = call double @sin(double noundef %98) #15, !tbaa !57
  store double %99, ptr %15, align 8, !tbaa !56
  %100 = load ptr, ptr %6, align 8, !tbaa !3
  %101 = getelementptr inbounds nuw %struct.PJconsts, ptr %100, i32 0, i32 0
  %102 = load ptr, ptr %101, align 8, !tbaa !47
  %103 = load ptr, ptr %7, align 8, !tbaa !41
  %104 = getelementptr inbounds nuw %"struct.(anonymous namespace)::pj_spilhaus_data", ptr %103, i32 0, i32 1
  %105 = load double, ptr %104, align 8, !tbaa !60
  %106 = load double, ptr %13, align 8, !tbaa !56
  %107 = load ptr, ptr %7, align 8, !tbaa !41
  %108 = getelementptr inbounds nuw %"struct.(anonymous namespace)::pj_spilhaus_data", ptr %107, i32 0, i32 0
  %109 = load double, ptr %108, align 8, !tbaa !61
  %110 = load double, ptr %12, align 8, !tbaa !56
  %111 = fmul double %109, %110
  %112 = load double, ptr %14, align 8, !tbaa !56
  %113 = fmul double %111, %112
  %114 = call double @llvm.fmuladd.f64(double %105, double %106, double %113)
  %115 = call noundef double @_Z5aasinP6pj_ctxd(ptr noundef %102, double noundef %114)
  %116 = getelementptr inbounds nuw %struct.PJ_LP, ptr %4, i32 0, i32 1
  store double %115, ptr %116, align 8, !tbaa !76
  %117 = load ptr, ptr %7, align 8, !tbaa !41
  %118 = getelementptr inbounds nuw %"struct.(anonymous namespace)::pj_spilhaus_data", ptr %117, i32 0, i32 3
  %119 = load double, ptr %118, align 8, !tbaa !62
  %120 = load double, ptr %12, align 8, !tbaa !56
  %121 = load double, ptr %15, align 8, !tbaa !56
  %122 = fmul double %120, %121
  %123 = load ptr, ptr %7, align 8, !tbaa !41
  %124 = getelementptr inbounds nuw %"struct.(anonymous namespace)::pj_spilhaus_data", ptr %123, i32 0, i32 1
  %125 = load double, ptr %124, align 8, !tbaa !60
  %126 = load double, ptr %12, align 8, !tbaa !56
  %127 = fmul double %125, %126
  %128 = load double, ptr %14, align 8, !tbaa !56
  %129 = load ptr, ptr %7, align 8, !tbaa !41
  %130 = getelementptr inbounds nuw %"struct.(anonymous namespace)::pj_spilhaus_data", ptr %129, i32 0, i32 0
  %131 = load double, ptr %130, align 8, !tbaa !61
  %132 = load double, ptr %13, align 8, !tbaa !56
  %133 = fmul double %131, %132
  %134 = fneg double %133
  %135 = call double @llvm.fmuladd.f64(double %127, double %128, double %134)
  %136 = call noundef double @_Z6aatan2dd(double noundef %122, double noundef %135)
  %137 = fadd double %119, %136
  %138 = getelementptr inbounds nuw %struct.PJ_LP, ptr %4, i32 0, i32 0
  store double %137, ptr %138, align 8, !tbaa !78
  call void @llvm.lifetime.start.p0(i64 8, ptr %16) #15
  store double 1.000000e-10, ptr %16, align 8, !tbaa !56
  %139 = getelementptr inbounds nuw %struct.PJ_LP, ptr %4, i32 0, i32 1
  %140 = load double, ptr %139, align 8, !tbaa !76
  %141 = load ptr, ptr %6, align 8, !tbaa !3
  %142 = getelementptr inbounds nuw %struct.PJconsts, ptr %141, i32 0, i32 26
  %143 = load double, ptr %142, align 8, !tbaa !48
  %144 = call noundef double @_Z24pj_conformal_lat_inverseddd(double noundef %140, double noundef %143, double noundef 1.000000e-10)
  %145 = getelementptr inbounds nuw %struct.PJ_LP, ptr %4, i32 0, i32 1
  store double %144, ptr %145, align 8, !tbaa !76
  call void @llvm.lifetime.end.p0(i64 8, ptr %16) #15
  call void @llvm.lifetime.end.p0(i64 8, ptr %15) #15
  call void @llvm.lifetime.end.p0(i64 8, ptr %14) #15
  call void @llvm.lifetime.end.p0(i64 8, ptr %13) #15
  call void @llvm.lifetime.end.p0(i64 8, ptr %12) #15
  call void @llvm.lifetime.end.p0(i64 16, ptr %10) #15
  call void @llvm.lifetime.end.p0(i64 8, ptr %9) #15
  call void @llvm.lifetime.end.p0(i64 16, ptr %8) #15
  call void @llvm.lifetime.end.p0(i64 8, ptr %7) #15
  %146 = load { double, double }, ptr %4, align 8
  ret { double, double } %146
}