; Function Attrs: mustprogress uwtable
define internal { double, double } @_ZL16spilhaus_inverse5PJ_XYP8PJconsts(double %0, double %1, ptr noundef readonly captures(none) %2) #0 {
  %4 = getelementptr inbounds nuw i8, ptr %2, i64 88
  %5 = load ptr, ptr %4, align 8, !tbaa !41
  %6 = getelementptr inbounds nuw i8, ptr %5, i64 32
  %7 = load double, ptr %6, align 8, !tbaa !62
  %8 = getelementptr inbounds nuw i8, ptr %2, i64 488
  %9 = load double, ptr %8, align 8, !tbaa !68
  %10 = fmul double %7, %9
  %11 = fdiv double 1.000000e+00, %10
  %12 = getelementptr inbounds nuw i8, ptr %5, i64 40
  %13 = load double, ptr %12, align 8, !tbaa !55
  %14 = getelementptr inbounds nuw i8, ptr %5, i64 48
  %15 = load double, ptr %14, align 8, !tbaa !56
  %16 = fneg double %15
  %17 = fmul double %1, %16
  %18 = tail call double @llvm.fmuladd.f64(double %0, double %13, double %17)
  %19 = fneg double %18
  %20 = fmul double %11, %19
  %21 = fmul double %1, %13
  %22 = tail call double @llvm.fmuladd.f64(double %0, double %15, double %21)
  %23 = fneg double %22
  %24 = fmul double %11, %23
  %25 = getelementptr inbounds nuw i8, ptr %5, i64 56
  %26 = load ptr, ptr %25, align 8, !tbaa !43
  %27 = getelementptr inbounds nuw i8, ptr %26, i64 112
  %28 = load ptr, ptr %27, align 8, !tbaa !64
  %29 = tail call { double, double } %28(double %20, double %24, ptr noundef %26)
  %30 = extractvalue { double, double } %29, 0
  %31 = extractvalue { double, double } %29, 1
  %32 = tail call double @cos(double noundef %31) #13, !tbaa !54
  %33 = tail call double @sin(double noundef %31) #13, !tbaa !54
  %34 = getelementptr inbounds nuw i8, ptr %5, i64 16
  %35 = load double, ptr %34, align 8, !tbaa !60
  %36 = fsub double %30, %35
  %37 = tail call double @cos(double noundef %36) #13, !tbaa !54
  %38 = tail call double @sin(double noundef %36) #13, !tbaa !54
  %39 = load ptr, ptr %2, align 8, !tbaa !45
  %40 = getelementptr inbounds nuw i8, ptr %5, i64 8
  %41 = load double, ptr %40, align 8, !tbaa !57
  %42 = load double, ptr %5, align 8, !tbaa !58
  %43 = fmul double %32, %42
  %44 = fmul double %37, %43
  %45 = tail call double @llvm.fmuladd.f64(double %41, double %33, double %44)
  %46 = tail call noundef double @_Z5aasinP6pj_ctxd(ptr noundef %39, double noundef %45)
  %47 = getelementptr inbounds nuw i8, ptr %5, i64 24
  %48 = load double, ptr %47, align 8, !tbaa !59
  %49 = fmul double %32, %38
  %50 = load double, ptr %40, align 8, !tbaa !57
  %51 = fmul double %32, %50
  %52 = load double, ptr %5, align 8, !tbaa !58
  %53 = fneg double %33
  %54 = fmul double %52, %53
  %55 = tail call double @llvm.fmuladd.f64(double %51, double %37, double %54)
  %56 = tail call noundef double @_Z6aatan2dd(double noundef %49, double noundef %55)
  %57 = fadd double %48, %56
  %58 = getelementptr inbounds nuw i8, ptr %2, i64 208
  %59 = load double, ptr %58, align 8, !tbaa !46
  %60 = tail call noundef double @_Z24pj_conformal_lat_inverseddd(double noundef %46, double noundef %59, double noundef 1.000000e-10)
  %.fca.0.insert = insertvalue { double, double } poison, double %57, 0
  %.fca.1.insert = insertvalue { double, double } %.fca.0.insert, double %60, 1
  ret { double, double } %.fca.1.insert
}